target datalayout = "e-m:e-p270:32:32-p271:32:32-p272:64:64-i64:64-i128:128-f80:128-n8:16:32:64-S128"
target triple = "x86_64-pc-linux-gnu"

%struct.RArray = type { %struct.RBasic, %union.anon }
%struct.RBasic = type { i64, i64 }
%union.anon = type { %struct.anon }
%struct.anon = type { i64, %union.anon.0, ptr }
%union.anon.0 = type { i64 }
%struct.MEMO = type { i64, i64, i64, i64, %union.anon.1 }
%union.anon.1 = type { i64 }

; Function Attrs: inlinehint nounwind sspstrong willreturn memory(read) uwtable
define internal i64 @RB_FL_TEST_RAW(i64 noundef %0, i64 noundef %1) #5 {
  %3 = alloca i64, align 8
  %4 = alloca i64, align 8
  store i64 %0, ptr %3, align 8, !tbaa !14
  store i64 %1, ptr %4, align 8, !tbaa !14
  %5 = load i64, ptr %3, align 8, !tbaa !14
  %6 = inttoptr i64 %5 to ptr
  %7 = getelementptr inbounds nuw %struct.RBasic, ptr %6, i32 0, i32 0
  %8 = load i64, ptr %7, align 8, !tbaa !88
  %9 = load i64, ptr %4, align 8, !tbaa !14
  %10 = and i64 %8, %9
  ret i64 %10
}

; Function Attrs: inlinehint nounwind sspstrong willreturn memory(read) uwtable
define internal i64 @RARRAY_EMBED_LEN(i64 noundef %0) #5 {
  %2 = alloca i64, align 8
  %3 = alloca i64, align 8
  store i64 %0, ptr %2, align 8, !tbaa !14
  call void @llvm.lifetime.start.p0(i64 8, ptr %3) #22
  %4 = load i64, ptr %2, align 8, !tbaa !14
  %5 = inttoptr i64 %4 to ptr
  %6 = getelementptr inbounds nuw %struct.RBasic, ptr %5, i32 0, i32 0
  %7 = load i64, ptr %6, align 8, !tbaa !88
  store i64 %7, ptr %3, align 8, !tbaa !14
  %8 = load i64, ptr %3, align 8, !tbaa !14
  %9 = and i64 %8, 4161536
  store i64 %9, ptr %3, align 8, !tbaa !14
  %10 = load i64, ptr %3, align 8, !tbaa !14
  %11 = lshr i64 %10, 15
  store i64 %11, ptr %3, align 8, !tbaa !14
  %12 = load i64, ptr %3, align 8, !tbaa !14
  call void @llvm.lifetime.end.p0(i64 8, ptr %3) #22
  ret i64 %12
}

; Function Attrs: inlinehint nounwind sspstrong willreturn memory(read) uwtable
define internal zeroext i1 @RB_FL_ANY_RAW(i64 noundef %0, i64 noundef %1) #5 {
  %3 = alloca i64, align 8
  %4 = alloca i64, align 8
  store i64 %0, ptr %3, align 8, !tbaa !14
  store i64 %1, ptr %4, align 8, !tbaa !14
  %5 = load i64, ptr %3, align 8, !tbaa !14
  %6 = load i64, ptr %4, align 8, !tbaa !14
  %7 = call i64 @RB_FL_TEST_RAW(i64 noundef %5, i64 noundef %6) #24
  %8 = icmp ne i64 %7, 0
  ret i1 %8
}

; Function Attrs: inlinehint nounwind sspstrong willreturn memory(read) uwtable
define internal i64 @rb_array_len(i64 noundef %0) #5 {
  %2 = alloca i64, align 8
  %3 = alloca i64, align 8
  store i64 %0, ptr %3, align 8, !tbaa !14
  %4 = load i64, ptr %3, align 8, !tbaa !14
  %5 = call zeroext i1 @RB_FL_ANY_RAW(i64 noundef %4, i64 noundef 8192) #24
  br i1 %5, label %6, label %9

6:                                                ; preds = %1
  %7 = load i64, ptr %3, align 8, !tbaa !14
  %8 = call i64 @RARRAY_EMBED_LEN(i64 noundef %7) #24
  store i64 %8, ptr %2, align 8
  br label %15

9:                                                ; preds = %1
  %10 = load i64, ptr %3, align 8, !tbaa !14
  %11 = inttoptr i64 %10 to ptr
  %12 = getelementptr inbounds nuw %struct.RArray, ptr %11, i32 0, i32 1
  %13 = getelementptr inbounds nuw %struct.anon, ptr %12, i32 0, i32 0
  %14 = load i64, ptr %13, align 8, !tbaa !31
  store i64 %14, ptr %2, align 8
  br label %15

15:                                               ; preds = %9, %6
  %16 = load i64, ptr %2, align 8
  ret i64 %16
}

; Function Attrs: nounwind sspstrong uwtable
define dso_local i64 @rb_enum_values_pack(i32 noundef %0, ptr noundef %1) #0 {
  %3 = alloca i64, align 8
  %4 = alloca i32, align 4
  %5 = alloca ptr, align 8
  store i32 %0, ptr %4, align 4, !tbaa !7
  store ptr %1, ptr %5, align 8, !tbaa !11
  %6 = load i32, ptr %4, align 4, !tbaa !7
  %7 = icmp eq i32 %6, 0
  br i1 %7, label %8, label %9

8:                                                ; preds = %2
  store i64 4, ptr %3, align 8
  br label %21

9:                                                ; preds = %2
  %10 = load i32, ptr %4, align 4, !tbaa !7
  %11 = icmp eq i32 %10, 1
  br i1 %11, label %12, label %16

12:                                               ; preds = %9
  %13 = load ptr, ptr %5, align 8, !tbaa !11
  %14 = getelementptr i64, ptr %13, i64 0
  %15 = load i64, ptr %14, align 8, !tbaa !14
  store i64 %15, ptr %3, align 8
  br label %21

16:                                               ; preds = %9
  %17 = load i32, ptr %4, align 4, !tbaa !7
  %18 = sext i32 %17 to i64
  %19 = load ptr, ptr %5, align 8, !tbaa !11
  %20 = call i64 @rb_ary_new_from_values(i64 noundef %18, ptr noundef %19)
  store i64 %20, ptr %3, align 8
  br label %21

21:                                               ; preds = %16, %12, %8
  %22 = load i64, ptr %3, align 8
  ret i64 %22
}

; Function Attrs: nounwind sspstrong uwtable
define internal i64 @each_cons_i(i64 noundef %0, i64 noundef %1, i32 noundef %2, ptr noundef %3, i64 noundef %4) #0 {
  %6 = alloca i64, align 8
  %7 = alloca i64, align 8
  %8 = alloca i32, align 4
  %9 = alloca ptr, align 8
  %10 = alloca i64, align 8
  %11 = alloca ptr, align 8
  %12 = alloca i64, align 8
  %13 = alloca i64, align 8
  %14 = alloca i64, align 8
  store i64 %0, ptr %6, align 8, !tbaa !14
  store i64 %1, ptr %7, align 8, !tbaa !14
  store i32 %2, ptr %8, align 4, !tbaa !7
  store ptr %3, ptr %9, align 8, !tbaa !11
  store i64 %4, ptr %10, align 8, !tbaa !14
  call void @llvm.lifetime.start.p0(i64 8, ptr %11) #22
  %15 = load i64, ptr %7, align 8, !tbaa !14
  %16 = inttoptr i64 %15 to ptr
  store ptr %16, ptr %11, align 8, !tbaa !34
  call void @llvm.lifetime.start.p0(i64 8, ptr %12) #22
  %17 = load ptr, ptr %11, align 8, !tbaa !34
  %18 = getelementptr inbounds nuw %struct.MEMO, ptr %17, i32 0, i32 2
  %19 = load i64, ptr %18, align 8, !tbaa !46
  store i64 %19, ptr %12, align 8, !tbaa !14
  call void @llvm.lifetime.start.p0(i64 8, ptr %13) #22
  store i64 4, ptr %13, align 8, !tbaa !14
  call void @llvm.lifetime.start.p0(i64 8, ptr %14) #22
  %20 = load ptr, ptr %11, align 8, !tbaa !34
  %21 = getelementptr inbounds nuw %struct.MEMO, ptr %20, i32 0, i32 4
  %22 = load i64, ptr %21, align 8, !tbaa !31
  store i64 %22, ptr %14, align 8, !tbaa !14
  br label %23

23:                                               ; preds = %5
  %24 = load i32, ptr %8, align 4, !tbaa !7
  %25 = load ptr, ptr %9, align 8, !tbaa !11
  %26 = call i64 @rb_enum_values_pack(i32 noundef %24, ptr noundef %25)
  store i64 %26, ptr %6, align 8, !tbaa !14
  br label %27

27:                                               ; preds = %23
  br label %28

28:                                               ; preds = %27
  %29 = load i64, ptr %12, align 8, !tbaa !14
  %30 = call i64 @rb_array_len(i64 noundef %29) #24
  %31 = load i64, ptr %14, align 8, !tbaa !14
  %32 = icmp eq i64 %30, %31
  br i1 %32, label %33, label %36

33:                                               ; preds = %28
  %34 = load i64, ptr %12, align 8, !tbaa !14
  %35 = call i64 @rb_ary_shift(i64 noundef %34)
  br label %36

36:                                               ; preds = %33, %28
  %37 = load i64, ptr %12, align 8, !tbaa !14
  %38 = load i64, ptr %6, align 8, !tbaa !14
  %39 = call i64 @rb_ary_push(i64 noundef %37, i64 noundef %38)
  %40 = load i64, ptr %12, align 8, !tbaa !14
  %41 = call i64 @rb_array_len(i64 noundef %40) #24
  %42 = load i64, ptr %14, align 8, !tbaa !14
  %43 = icmp eq i64 %41, %42
  br i1 %43, label %44, label %55

44:                                               ; preds = %36
  %45 = load ptr, ptr %11, align 8, !tbaa !34
  %46 = getelementptr inbounds nuw %struct.MEMO, ptr %45, i32 0, i32 3
  %47 = load i64, ptr %46, align 8, !tbaa !48
  %48 = icmp ne i64 %47, 0
  br i1 %48, label %49, label %52

49:                                               ; preds = %44
  %50 = load i64, ptr %12, align 8, !tbaa !14
  %51 = call i64 @rb_ary_dup(i64 noundef %50)
  store i64 %51, ptr %12, align 8, !tbaa !14
  br label %52

52:                                               ; preds = %49, %44
  %53 = load i64, ptr %12, align 8, !tbaa !14
  %54 = call i64 @rb_yield(i64 noundef %53)
  store i64 %54, ptr %13, align 8, !tbaa !14
  br label %55

55:                                               ; preds = %52, %36
  %56 = load i64, ptr %13, align 8, !tbaa !14
  call void @llvm.lifetime.end.p0(i64 8, ptr %14) #22
  call void @llvm.lifetime.end.p0(i64 8, ptr %13) #22
  call void @llvm.lifetime.end.p0(i64 8, ptr %12) #22
  call void @llvm.lifetime.end.p0(i64 8, ptr %11) #22
  ret i64 %56
}