; Function Attrs: nounwind sspstrong uwtable
define internal i64 @each_cons_i(i64 %0, i64 noundef %1, i32 noundef %2, ptr noundef %3, i64 %4) #0 {
  %6 = inttoptr i64 %1 to ptr
  %7 = getelementptr inbounds nuw i8, ptr %6, i64 16
  %8 = load i64, ptr %7, align 8, !tbaa !60
  %9 = getelementptr inbounds nuw i8, ptr %6, i64 32
  %10 = load i64, ptr %9, align 8, !tbaa !22
  switch i32 %2, label %13 [
    i32 0, label %rb_enum_values_pack.exit
    i32 1, label %11
  ]

11:                                               ; preds = %5
  %12 = load i64, ptr %3, align 8, !tbaa !7
  br label %rb_enum_values_pack.exit

13:                                               ; preds = %5
  %14 = sext i32 %2 to i64
  %15 = tail call i64 @rb_ary_new_from_values(i64 noundef %14, ptr noundef %3) #14
  br label %rb_enum_values_pack.exit

rb_enum_values_pack.exit:                         ; preds = %5, %11, %13
  %.0.i = phi i64 [ %12, %11 ], [ %15, %13 ], [ 4, %5 ]
  %16 = inttoptr i64 %8 to ptr
  %17 = load i64, ptr %16, align 8, !tbaa !20
  %18 = and i64 %17, 8192
  %.not.i = icmp eq i64 %18, 0
  br i1 %.not.i, label %22, label %19

19:                                               ; preds = %rb_enum_values_pack.exit
  %20 = lshr i64 %17, 15
  %21 = and i64 %20, 127
  br label %rb_array_len.exit

22:                                               ; preds = %rb_enum_values_pack.exit
  %23 = getelementptr inbounds nuw i8, ptr %16, i64 16
  %24 = load i64, ptr %23, align 8, !tbaa !22
  br label %rb_array_len.exit

rb_array_len.exit:                                ; preds = %19, %22
  %.0.i16 = phi i64 [ %21, %19 ], [ %24, %22 ]
  %25 = icmp eq i64 %.0.i16, %10
  br i1 %25, label %26, label %28

26:                                               ; preds = %rb_array_len.exit
  %27 = tail call i64 @rb_ary_shift(i64 noundef %8) #14
  br label %28

28:                                               ; preds = %26, %rb_array_len.exit
  %29 = tail call i64 @rb_ary_push(i64 noundef %8, i64 noundef %.0.i) #14
  %30 = load i64, ptr %16, align 8, !tbaa !20
  %31 = and i64 %30, 8192
  %.not.i17 = icmp eq i64 %31, 0
  br i1 %.not.i17, label %35, label %32

32:                                               ; preds = %28
  %33 = lshr i64 %30, 15
  %34 = and i64 %33, 127
  br label %rb_array_len.exit19

35:                                               ; preds = %28
  %36 = getelementptr inbounds nuw i8, ptr %16, i64 16
  %37 = load i64, ptr %36, align 8, !tbaa !22
  br label %rb_array_len.exit19

rb_array_len.exit19:                              ; preds = %32, %35
  %.0.i18 = phi i64 [ %34, %32 ], [ %37, %35 ]
  %38 = icmp eq i64 %.0.i18, %10
  br i1 %38, label %39, label %46

39:                                               ; preds = %rb_array_len.exit19
  %40 = getelementptr inbounds nuw i8, ptr %6, i64 24
  %41 = load i64, ptr %40, align 8, !tbaa !67
  %.not = icmp eq i64 %41, 0
  br i1 %.not, label %44, label %42

42:                                               ; preds = %39
  %43 = tail call i64 @rb_ary_dup(i64 noundef %8) #14
  br label %44

44:                                               ; preds = %42, %39
  %.015 = phi i64 [ %43, %42 ], [ %8, %39 ]
  %45 = tail call i64 @rb_yield(i64 noundef %.015) #14
  br label %46

46:                                               ; preds = %44, %rb_array_len.exit19
  %.0 = phi i64 [ %45, %44 ], [ 4, %rb_array_len.exit19 ]
  ret i64 %.0
}